EXPORTS
    GUID_DEVINTERFACE_LIBUSB0_FILTER @1 DATA
    GUID_DEVINTERFACE_USB_DEVICE @2 DATA
    GUID_DEVINTERFACE_USB_HOST_CONTROLLER @3 DATA
    GUID_DEVINTERFACE_USB_HUB @4 DATA
    INVALID_WINFD @5 DATA
    _Z11AdjustParamP9UVC4Linuxii @6
    _Z14getCameraIndexP11uvc_contextRSt6vectorIP10uvc_deviceSaIS3_EE @7
    _Z14getCaptureListP11uvc_contextRSt6vectorIP10uvc_deviceSaIS3_EE @8
    _Z16getFrameCallBackP9uvc_framePv @9
    _Z17ComposeSetUserCmdiiPhi @10
    _Z22ControlsStatusCallback16uvc_status_classii20uvc_status_attributePvjS1_ @11
    _Z22uvcCreateCameraCapturei @12
    _Z23uvcReleaseCameraCapturePv @13
    _ZN10UVCCapture11getPropertyEi @14
    _ZN10UVCCapture11setPropertyEid @15
    _ZN10UVCCapture9grabFrameEPPh @16
    _ZN10UVCCaptureC2Ev @17
    _ZN10UVCCaptureD0Ev @18
    _ZN10UVCCaptureD1Ev @19
    _ZN10UVCCaptureD2Ev @20
    _ZN13PropertyRangeC1Eii @21
    _ZN13PropertyRangeC1Ev @22
    _ZN8SgCamera10getUsbListEPc @23
    _ZN8SgCamera18HidSwitchToUvcModeEv @24
    _ZN8SgCamera3setEid @25
    _ZN8SgCamera4openEi @26
    _ZN8SgCamera4readEPh @27
    _ZN8SgCamera5closeEv @28
    _ZN8SgCameraC1Ei @29
    _ZN8SgCameraC1Ev @30
    _ZN8SgCameraC2Ei @31
    _ZN8SgCameraC2Ev @32
    _ZN8SgCameraD0Ev @33
    _ZN8SgCameraD1Ev @34
    _ZN8SgCameraD2Ev @35
    _ZN9UVC4Linux11getPropertyEi @36
    _ZN9UVC4Linux11setPropertyEid @37
    _ZN9UVC4Linux12updateStatusEv @38
    _ZN9UVC4Linux13FreshPropertyEid @39
    _ZN9UVC4Linux15openVideoStreamEv @40
    _ZN9UVC4Linux16closeVideoStreamEv @41
    _ZN9UVC4Linux20FindIndexFromDevListEhSt6vectorIP10uvc_deviceSaIS2_EE @42
    _ZN9UVC4Linux4openEi @43
    _ZN9UVC4Linux5getIDEv @44
    _ZN9UVC4Linux6ReopenEv @45
    _ZN9UVC4Linux9grabFrameEPPh @46
    _ZN9UVC4Linux9setStatusEh @47
    _ZN9UVC4LinuxC1Ev @48
    _ZN9UVC4LinuxC2Ev @49
    _ZN9UVC4LinuxD0Ev @50
    _ZN9UVC4LinuxD1Ev @51
    _ZN9UVC4LinuxD2Ev @52
    _ZN9__gnu_cxx13new_allocatorIP10uvc_deviceE10deallocateEPS2_j @53
    _ZN9__gnu_cxx13new_allocatorIP10uvc_deviceE7destroyIS2_EEvPT_ @54
    _ZN9__gnu_cxx13new_allocatorIP10uvc_deviceE8allocateEjPKv @55
    _ZN9__gnu_cxx13new_allocatorIP10uvc_deviceE9constructIS2_JRKS2_EEEvPT_DpOT0_ @56
    _ZN9__gnu_cxx13new_allocatorIP10uvc_deviceEC2Ev @57
    _ZN9__gnu_cxx13new_allocatorIP10uvc_deviceED2Ev @58
    _ZN9__gnu_cxx17__normal_iteratorIPP10uvc_deviceSt6vectorIS2_SaIS2_EEEC1ERKS3_ @59
    _ZN9__gnu_cxx17__normal_iteratorIPP10uvc_deviceSt6vectorIS2_SaIS2_EEEppEv @60
    _ZN9__gnu_cxxmiIPP10uvc_deviceSt6vectorIS2_SaIS2_EEEENS_17__normal_iteratorIT_T0_E15difference_typeERKSA_SD_ @61
    _ZN9__gnu_cxxneIPP10uvc_deviceSt6vectorIS2_SaIS2_EEEEbRKNS_17__normal_iteratorIT_T0_EESC_ @62
    _ZNK13PropertyRange4sizeEv @63
    _ZNK8SgCamera3getEi @64
    _ZNK8SgCamera8isOpenedEv @65
    _ZNK9UVC4Linux8getRangeEi @66
    _ZNK9__gnu_cxx13new_allocatorIP10uvc_deviceE8max_sizeEv @67
    _ZNK9__gnu_cxx17__normal_iteratorIPP10uvc_deviceSt6vectorIS2_SaIS2_EEE4baseEv @68
    _ZNK9__gnu_cxx17__normal_iteratorIPP10uvc_deviceSt6vectorIS2_SaIS2_EEEdeEv @69
    _ZNKSt12_Vector_baseIP10uvc_deviceSaIS1_EE19_M_get_Tp_allocatorEv @70
    _ZNKSt13move_iteratorIPP10uvc_deviceE4baseEv @71
    _ZNKSt6chrono8durationIxSt5ratioILx1ELx1000000000EEE5countEv @72
    _ZNKSt6chrono8durationIxSt5ratioILx1ELx1000EEE5countEv @73
    _ZNKSt6chrono8durationIxSt5ratioILx1ELx1EEE5countEv @74
    _ZNKSt6vectorIP10uvc_deviceSaIS1_EE12_M_check_lenEjPKc @75
    _ZNKSt6vectorIP10uvc_deviceSaIS1_EE4sizeEv @76
    _ZNKSt6vectorIP10uvc_deviceSaIS1_EE8max_sizeEv @77
    _ZNSaIP10uvc_deviceEC2Ev @78
    _ZNSaIP10uvc_deviceED2Ev @79
    _ZNSt11__copy_moveILb1ELb1ESt26random_access_iterator_tagE8__copy_mIP10uvc_deviceEEPT_PKS5_S8_S6_ @80
    _ZNSt11this_thread9sleep_forIxSt5ratioILx1ELx1000EEEEvRKNSt6chrono8durationIT_T0_EE @81
    _ZNSt12_Destroy_auxILb1EE9__destroyIPP10uvc_deviceEEvT_S5_ @82
    _ZNSt12_Vector_baseIP10uvc_deviceSaIS1_EE11_M_allocateEj @83
    _ZNSt12_Vector_baseIP10uvc_deviceSaIS1_EE12_Vector_implC1Ev @84
    _ZNSt12_Vector_baseIP10uvc_deviceSaIS1_EE12_Vector_implD1Ev @85
    _ZNSt12_Vector_baseIP10uvc_deviceSaIS1_EE13_M_deallocateEPS1_j @86
    _ZNSt12_Vector_baseIP10uvc_deviceSaIS1_EE19_M_get_Tp_allocatorEv @87
    _ZNSt12_Vector_baseIP10uvc_deviceSaIS1_EEC2Ev @88
    _ZNSt12_Vector_baseIP10uvc_deviceSaIS1_EED2Ev @89
    _ZNSt13move_iteratorIPP10uvc_deviceEC1ES2_ @90
    _ZNSt16allocator_traitsISaIP10uvc_deviceEE10deallocateERS2_PS1_j @91
    _ZNSt16allocator_traitsISaIP10uvc_deviceEE7destroyIS1_EEvRS2_PT_ @92
    _ZNSt16allocator_traitsISaIP10uvc_deviceEE8allocateERS2_j @93
    _ZNSt16allocator_traitsISaIP10uvc_deviceEE8max_sizeERKS2_ @94
    _ZNSt16allocator_traitsISaIP10uvc_deviceEE9constructIS1_JRKS1_EEEvRS2_PT_DpOT0_ @95
    _ZNSt20__uninitialized_copyILb1EE13__uninit_copyISt13move_iteratorIPP10uvc_deviceES5_EET0_T_S8_S7_ @96
    _ZNSt6chrono13duration_castINS_8durationIxSt5ratioILx1ELx1000000000EEEExS2_ILx1ELx1000EEEENSt9enable_ifIXsrNS_13__is_durationIT_EE5valueES8_E4typeERKNS1_IT0_T1_EE @97
    _ZNSt6chrono13duration_castINS_8durationIxSt5ratioILx1ELx1000EEEExS2_ILx1ELx1EEEENSt9enable_ifIXsrNS_13__is_durationIT_EE5valueES8_E4typeERKNS1_IT0_T1_EE @98
    _ZNSt6chrono13duration_castINS_8durationIxSt5ratioILx1ELx1EEEExS2_ILx1ELx1000EEEENSt9enable_ifIXsrNS_13__is_durationIT_EE5valueES8_E4typeERKNS1_IT0_T1_EE @99
    _ZNSt6chrono15duration_valuesIxE4zeroEv @100
    _ZNSt6chrono20__duration_cast_implINS_8durationIxSt5ratioILx1ELx1000000000EEEES2_ILx1000000ELx1EExLb0ELb1EE6__castIxS2_ILx1ELx1000EEEES4_RKNS1_IT_T0_EE @101
    _ZNSt6chrono20__duration_cast_implINS_8durationIxSt5ratioILx1ELx1000EEEES2_ILx1000ELx1EExLb0ELb1EE6__castIxS2_ILx1ELx1EEEES4_RKNS1_IT_T0_EE @102
    _ZNSt6chrono20__duration_cast_implINS_8durationIxSt5ratioILx1ELx1EEEES2_ILx1ELx1000EExLb1ELb0EE6__castIxS5_EES4_RKNS1_IT_T0_EE @103
    _ZNSt6chrono8durationIxSt5ratioILx1ELx1000000000EEEC1IxvEERKT_ @104
    _ZNSt6chrono8durationIxSt5ratioILx1ELx1000EEE4zeroEv @105
    _ZNSt6chrono8durationIxSt5ratioILx1ELx1000EEEC1IivEERKT_ @106
    _ZNSt6chrono8durationIxSt5ratioILx1ELx1000EEEC1IxS1_ILx1ELx1EEvEERKNS0_IT_T0_EE @107
    _ZNSt6chrono8durationIxSt5ratioILx1ELx1000EEEC1IxvEERKT_ @108
    _ZNSt6chrono8durationIxSt5ratioILx1ELx1EEEC1IxvEERKT_ @109
    _ZNSt6chronoleIxSt5ratioILx1ELx1000EExS2_EEbRKNS_8durationIT_T0_EERKNS3_IT1_T2_EE @110
    _ZNSt6chronoltIxSt5ratioILx1ELx1000EExS2_EEbRKNS_8durationIT_T0_EERKNS3_IT1_T2_EE @111
    _ZNSt6chronomiIxSt5ratioILx1ELx1000EExS1_ILx1ELx1EEEENSt11common_typeIJNS_8durationIT_T0_EENS5_IT1_T2_EEEE4typeERKS8_RKSB_ @112
    _ZNSt6vectorIP10uvc_deviceSaIS1_EE15_M_erase_at_endEPS1_ @113
    _ZNSt6vectorIP10uvc_deviceSaIS1_EE17_M_realloc_insertIJRKS1_EEEvN9__gnu_cxx17__normal_iteratorIPS1_S3_EEDpOT_ @114
    _ZNSt6vectorIP10uvc_deviceSaIS1_EE3endEv @115
    _ZNSt6vectorIP10uvc_deviceSaIS1_EE5beginEv @116
    _ZNSt6vectorIP10uvc_deviceSaIS1_EE5clearEv @117
    _ZNSt6vectorIP10uvc_deviceSaIS1_EE9push_backERKS1_ @118
    _ZNSt6vectorIP10uvc_deviceSaIS1_EEC1Ev @119
    _ZNSt6vectorIP10uvc_deviceSaIS1_EED1Ev @120
    _ZNSt6vectorIP10uvc_deviceSaIS1_EEixEj @121
    _ZSt12__miter_baseIPP10uvc_deviceEDTcl12__miter_basecldtfp_4baseEEESt13move_iteratorIT_E @122
    _ZSt12__miter_baseIPP10uvc_deviceET_S3_ @123
    _ZSt12__niter_baseIPP10uvc_deviceET_S3_ @124
    _ZSt13__copy_move_aILb1EPP10uvc_deviceS2_ET1_T0_S4_S3_ @125
    _ZSt14__copy_move_a2ILb1EPP10uvc_deviceS2_ET1_T0_S4_S3_ @126
    _ZSt18uninitialized_copyISt13move_iteratorIPP10uvc_deviceES3_ET0_T_S6_S5_ @127
    _ZSt22__uninitialized_copy_aISt13move_iteratorIPP10uvc_deviceES3_S2_ET0_T_S6_S5_RSaIT1_E @128
    _ZSt32__make_move_if_noexcept_iteratorIP10uvc_deviceSt13move_iteratorIPS1_EET0_PT_ @129
    _ZSt34__uninitialized_move_if_noexcept_aIPP10uvc_deviceS2_SaIS1_EET0_T_S5_S4_RT1_ @130
    _ZSt3maxIjERKT_S2_S2_ @131
    _ZSt4copyISt13move_iteratorIPP10uvc_deviceES3_ET0_T_S6_S5_ @132
    _ZSt7forwardIRKP10uvc_deviceEOT_RNSt16remove_referenceIS4_E4typeE @133
    _ZSt8_DestroyIPP10uvc_deviceEvT_S3_ @134
    _ZSt8_DestroyIPP10uvc_deviceS1_EvT_S3_RSaIT0_E @135
    _ZTI10UVCCapture @136 DATA
    _ZTI8SgCamera @137 DATA
    _ZTI9UVC4Linux @138 DATA
    _ZTS10UVCCapture @139 DATA
    _ZTS8SgCamera @140 DATA
    _ZTS9UVC4Linux @141 DATA
    _ZTV10UVCCapture @142 DATA
    _ZTV8SgCamera @143 DATA
    _ZTV9UVC4Linux @144 DATA
    _ZnwjPv @145
    _get_format_entry @146
    _uvc_handle_events @147
    _uvc_populate_frame @148
    _uvc_process_payload @149
    _uvc_status_callback@4 @150
    _uvc_stream_callback@4 @151
    _uvc_swap_buffers @152
    _uvc_user_caller @153
    active_contexts_list @154 DATA
    active_contexts_lock @155 DATA
    discovered_devs_append @156
    gTick @157 DATA
    getUsbCameraList @158
    htab_hash @159
    libusb_alloc_streams @160
    libusb_alloc_transfer @161
    libusb_attach_kernel_driver @162
    libusb_bulk_transfer @163
    libusb_cancel_transfer @164
    libusb_claim_interface @165
    libusb_clear_halt @166
    libusb_close @167
    libusb_control_transfer @168
    libusb_detach_kernel_driver @169
    libusb_dev_mem_alloc @170
    libusb_dev_mem_free @171
    libusb_error_name @172
    libusb_event_handler_active @173
    libusb_event_handling_ok @174
    libusb_exit @175
    libusb_free_bos_descriptor @176
    libusb_free_config_descriptor @177
    libusb_free_container_id_descriptor @178
    libusb_free_device_list @179
    libusb_free_pollfds @180
    libusb_free_ss_endpoint_companion_descriptor @181
    libusb_free_ss_usb_device_capability_descriptor @182
    libusb_free_streams @183
    libusb_free_transfer @184
    libusb_free_usb_2_0_extension_descriptor @185
    libusb_get_active_config_descriptor @186
    libusb_get_bos_descriptor @187
    libusb_get_bus_number @188
    libusb_get_config_descriptor @189
    libusb_get_config_descriptor_by_value @190
    libusb_get_configuration @191
    libusb_get_container_id_descriptor @192
    libusb_get_device @193
    libusb_get_device_address @194
    libusb_get_device_descriptor @195
    libusb_get_device_list @196
    libusb_get_device_speed @197
    libusb_get_max_iso_packet_size @198
    libusb_get_max_packet_size @199
    libusb_get_next_timeout @200
    libusb_get_parent @201
    libusb_get_pollfds @202
    libusb_get_port_number @203
    libusb_get_port_numbers @204
    libusb_get_port_path @205
    libusb_get_ss_endpoint_companion_descriptor @206
    libusb_get_ss_usb_device_capability_descriptor @207
    libusb_get_string_descriptor_ascii @208
    libusb_get_usb_2_0_extension_descriptor @209
    libusb_get_version @210
    libusb_handle_events @211
    libusb_handle_events_completed @212
    libusb_handle_events_locked @213
    libusb_handle_events_timeout @214
    libusb_handle_events_timeout_completed @215
    libusb_has_capability @216
    libusb_hotplug_deregister_callback @217
    libusb_hotplug_register_callback @218
    libusb_init @219
    libusb_interrupt_event_handler @220
    libusb_interrupt_transfer @221
    libusb_kernel_driver_active @222
    libusb_lock_event_waiters @223
    libusb_lock_events @224
    libusb_open @225
    libusb_open_device_with_vid_pid @226
    libusb_pollfds_handle_timeouts @227
    libusb_ref_device @228
    libusb_release_interface @229
    libusb_reset_device @230
    libusb_set_auto_detach_kernel_driver @231
    libusb_set_configuration @232
    libusb_set_debug @233
    libusb_set_interface_alt_setting @234
    libusb_set_option @235
    libusb_set_pollfd_notifiers @236
    libusb_setlocale @237
    libusb_strerror @238
    libusb_submit_transfer @239
    libusb_transfer_get_stream_id @240
    libusb_transfer_set_stream_id @241
    libusb_try_lock_events @242
    libusb_unlock_event_waiters @243
    libusb_unlock_events @244
    libusb_unref_device @245
    libusb_wait_for_event @246
    m_Mid @247 DATA
    m_Start @248 DATA
    pCancelIoEx @249 DATA
    setHidCameraMode @250
    usb_api_backend @251 DATA
    usbdk_backend @252 DATA
    usbi_add_pollfd @253
    usbi_alloc_device @254
    usbi_backend @255 DATA
    usbi_clear_event @256
    usbi_close @257
    usbi_cond_timedwait @258
    usbi_connect_device @259
    usbi_create_fd @260
    usbi_default_context @261 DATA
    usbi_device_cache_descriptor @262
    usbi_disconnect_device @263
    usbi_get_config_index_by_value @264
    usbi_get_device_by_session_id @265
    usbi_get_tid @266
    usbi_handle_disconnect @267
    usbi_handle_transfer_cancellation @268
    usbi_handle_transfer_completion @269
    usbi_hotplug_deregister @270
    usbi_hotplug_match @271
    usbi_hotplug_notification @272
    usbi_io_exit @273
    usbi_io_init @274
    usbi_parse_descriptor @275
    usbi_pipe @276
    usbi_poll @277
    usbi_read @278
    usbi_remove_pollfd @279
    usbi_sanitize_device @280
    usbi_signal_event @281
    usbi_signal_transfer_completion @282
    usbi_write @283
    uvc_allocate_frame @284
    uvc_already_open @285
    uvc_any2bgr @286
    uvc_any2rgb @287
    uvc_break @288
    uvc_claim_if @289
    uvc_close @290
    uvc_duplicate_frame @291
    uvc_ensure_frame_size @292
    uvc_exit @293
    uvc_find_device @294
    uvc_find_devices @295
    uvc_find_frame_desc @296
    uvc_find_frame_desc_stream @297
    uvc_free_devh @298
    uvc_free_device_descriptor @299
    uvc_free_device_info @300
    uvc_free_device_list @301
    uvc_free_frame @302
    uvc_get_ae_mode @303
    uvc_get_ae_priority @304
    uvc_get_analog_video_lock_status @305
    uvc_get_analog_video_standard @306
    uvc_get_backlight_compensation @307
    uvc_get_brightness @308
    uvc_get_bus_number @309
    uvc_get_camera_terminal @310
    uvc_get_contrast @311
    uvc_get_contrast_auto @312
    uvc_get_ct_max @313
    uvc_get_ctrl @314
    uvc_get_ctrl_len @315
    uvc_get_device @316
    uvc_get_device_address @317
    uvc_get_device_descriptor @318
    uvc_get_device_info @319
    uvc_get_device_list @320
    uvc_get_digital_multiplier @321
    uvc_get_digital_multiplier_limit @322
    uvc_get_digital_roi @323
    uvc_get_digital_window @324
    uvc_get_exposure_abs @325
    uvc_get_exposure_rel @326
    uvc_get_extension_units @327
    uvc_get_focus_abs @328
    uvc_get_focus_auto @329
    uvc_get_focus_rel @330
    uvc_get_focus_simple_range @331
    uvc_get_format_descs @332
    uvc_get_gain @333
    uvc_get_gamma @334
    uvc_get_hue @335
    uvc_get_hue_auto @336
    uvc_get_input_select @337
    uvc_get_input_terminals @338
    uvc_get_iris_abs @339
    uvc_get_iris_rel @340
    uvc_get_libusb_handle @341
    uvc_get_output_terminals @342
    uvc_get_pantilt_abs @343
    uvc_get_pantilt_rel @344
    uvc_get_port_number @345
    uvc_get_power_line_frequency @346
    uvc_get_power_mode @347
    uvc_get_privacy @348
    uvc_get_processing_units @349
    uvc_get_roll_abs @350
    uvc_get_roll_rel @351
    uvc_get_saturation @352
    uvc_get_scanning_mode @353
    uvc_get_selector_units @354
    uvc_get_sharpness @355
    uvc_get_still_ctrl_format_size @356
    uvc_get_stream_ctrl_format_size @357
    uvc_get_white_balance_component @358
    uvc_get_white_balance_component_auto @359
    uvc_get_white_balance_temperature @360
    uvc_get_white_balance_temperature_auto @361
    uvc_get_xu_data @362
    uvc_get_zoom_abs @363
    uvc_get_zoom_rel @364
    uvc_init @365
    uvc_num_devices @366
    uvc_open @367
    uvc_parse_vc @368
    uvc_parse_vc_extension_unit @369
    uvc_parse_vc_header @370
    uvc_parse_vc_input_terminal @371
    uvc_parse_vc_processing_unit @372
    uvc_parse_vc_selector_unit @373
    uvc_parse_vs @374
    uvc_parse_vs_format_mjpeg @375
    uvc_parse_vs_format_uncompressed @376
    uvc_parse_vs_frame_format @377
    uvc_parse_vs_frame_frame @378
    uvc_parse_vs_frame_uncompressed @379
    uvc_parse_vs_input_header @380
    uvc_parse_vs_still_image_frame @381
    uvc_perror @382
    uvc_print_diag @383
    uvc_print_frameformats @384
    uvc_print_stream_ctrl @385
    uvc_probe_still_ctrl @386
    uvc_probe_stream_ctrl @387
    uvc_process_control_status @388
    uvc_process_status_xfer @389
    uvc_process_streaming_status @390
    uvc_query_still_ctrl @391
    uvc_query_stream_ctrl @392
    uvc_ref_device @393
    uvc_release_if @394
    uvc_scan_control @395
    uvc_scan_streaming @396
    uvc_set_ae_mode @397
    uvc_set_ae_priority @398
    uvc_set_analog_video_lock_status @399
    uvc_set_analog_video_standard @400
    uvc_set_backlight_compensation @401
    uvc_set_brightness @402
    uvc_set_button_callback @403
    uvc_set_contrast @404
    uvc_set_contrast_auto @405
    uvc_set_ctrl @406
    uvc_set_digital_multiplier @407
    uvc_set_digital_multiplier_limit @408
    uvc_set_digital_roi @409
    uvc_set_digital_window @410
    uvc_set_exposure_abs @411
    uvc_set_exposure_rel @412
    uvc_set_focus_abs @413
    uvc_set_focus_auto @414
    uvc_set_focus_rel @415
    uvc_set_focus_simple_range @416
    uvc_set_gain @417
    uvc_set_gamma @418
    uvc_set_hue @419
    uvc_set_hue_auto @420
    uvc_set_input_select @421
    uvc_set_iris_abs @422
    uvc_set_iris_rel @423
    uvc_set_pantilt_abs @424
    uvc_set_pantilt_rel @425
    uvc_set_power_line_frequency @426
    uvc_set_power_mode @427
    uvc_set_privacy @428
    uvc_set_roll_abs @429
    uvc_set_roll_rel @430
    uvc_set_saturation @431
    uvc_set_scanning_mode @432
    uvc_set_sharpness @433
    uvc_set_status_callback @434
    uvc_set_white_balance_component @435
    uvc_set_white_balance_component_auto @436
    uvc_set_white_balance_temperature @437
    uvc_set_white_balance_temperature_auto @438
    uvc_set_xu_data @439
    uvc_set_zoom_abs @440
    uvc_set_zoom_rel @441
    uvc_start_handler_thread @442
    uvc_start_iso_streaming @443
    uvc_start_streaming @444
    uvc_stop_streaming @445
    uvc_stream_close @446
    uvc_stream_ctrl @447
    uvc_stream_get_frame @448
    uvc_stream_open_ctrl @449
    uvc_stream_start @450
    uvc_stream_start_iso @451
    uvc_stream_stop @452
    uvc_strerror @453
    uvc_trigger_still @454
    uvc_unref_device @455
    uvc_uyvy2bgr @456
    uvc_uyvy2rgb @457
    uvc_yuyv2bgr @458
    uvc_yuyv2rgb @459
    uvc_yuyv2uv @460
    uvc_yuyv2y @461
    windows_force_sync_completion @462
    windows_version @463 DATA
    winusb_backend @464 DATA
